; Function Attrs: mustprogress uwtable
define noundef i32 @_ZN5Ipopt16IpoptApplication11OptimizeNLPERKNS_8SmartPtrINS_3NLPEEE(ptr noundef nonnull align 8 dereferenceable(90) %0, ptr noundef nonnull align 8 dereferenceable(8) %1) unnamed_addr #3 align 2 personality ptr @__gxx_personality_v0 {
  %3 = alloca %"class.Ipopt::SmartPtr.41", align 8
  call void @llvm.lifetime.start.p0(i64 8, ptr nonnull %3) #23
  store ptr null, ptr %3, align 8, !tbaa !107
  %4 = load ptr, ptr %0, align 8, !tbaa !8
  %5 = getelementptr inbounds nuw i8, ptr %4, i64 72
  %6 = load ptr, ptr %5, align 8
  %7 = invoke noundef i32 %6(ptr noundef nonnull align 8 dereferenceable(90) %0, ptr noundef nonnull align 8 dereferenceable(8) %1, ptr noundef nonnull align 8 dereferenceable(8) %3)
          to label %8 unwind label %19

8:                                                ; preds = %2
  %9 = load ptr, ptr %3, align 8, !tbaa !107
  %.not.i.i = icmp eq ptr %9, null
  br i1 %.not.i.i, label %_ZN5Ipopt8SmartPtrINS_16AlgorithmBuilderEED2Ev.exit, label %10

10:                                               ; preds = %8
  %11 = getelementptr inbounds nuw i8, ptr %9, i64 8
  %12 = load i32, ptr %11, align 8, !tbaa !3
  %13 = add nsw i32 %12, -1
  store i32 %13, ptr %11, align 8, !tbaa !3
  %14 = icmp eq i32 %13, 0
  br i1 %14, label %15, label %_ZN5Ipopt8SmartPtrINS_16AlgorithmBuilderEED2Ev.exit

15:                                               ; preds = %10
  %16 = load ptr, ptr %9, align 8, !tbaa !8
  %17 = getelementptr inbounds nuw i8, ptr %16, i64 8
  %18 = load ptr, ptr %17, align 8
  call void %18(ptr noundef nonnull align 8 dereferenceable(192) %9) #23
  br label %_ZN5Ipopt8SmartPtrINS_16AlgorithmBuilderEED2Ev.exit

_ZN5Ipopt8SmartPtrINS_16AlgorithmBuilderEED2Ev.exit: ; preds = %8, %10, %15
  call void @llvm.lifetime.end.p0(i64 8, ptr nonnull %3) #23
  ret i32 %7

19:                                               ; preds = %2
  %20 = landingpad { ptr, i32 }
          cleanup
  %21 = load ptr, ptr %3, align 8, !tbaa !107
  %.not.i.i3 = icmp eq ptr %21, null
  br i1 %.not.i.i3, label %_ZN5Ipopt8SmartPtrINS_16AlgorithmBuilderEED2Ev.exit4, label %22

22:                                               ; preds = %19
  %23 = getelementptr inbounds nuw i8, ptr %21, i64 8
  %24 = load i32, ptr %23, align 8, !tbaa !3
  %25 = add nsw i32 %24, -1
  store i32 %25, ptr %23, align 8, !tbaa !3
  %26 = icmp eq i32 %25, 0
  br i1 %26, label %27, label %_ZN5Ipopt8SmartPtrINS_16AlgorithmBuilderEED2Ev.exit4

27:                                               ; preds = %22
  %28 = load ptr, ptr %21, align 8, !tbaa !8
  %29 = getelementptr inbounds nuw i8, ptr %28, i64 8
  %30 = load ptr, ptr %29, align 8
  call void %30(ptr noundef nonnull align 8 dereferenceable(192) %21) #23
  br label %_ZN5Ipopt8SmartPtrINS_16AlgorithmBuilderEED2Ev.exit4

_ZN5Ipopt8SmartPtrINS_16AlgorithmBuilderEED2Ev.exit4: ; preds = %19, %22, %27
  call void @llvm.lifetime.end.p0(i64 8, ptr nonnull %3) #23
  resume { ptr, i32 } %20
}